target datalayout = "e-m:e-p270:32:32-p271:32:32-p272:64:64-i64:64-i128:128-f80:128-n8:16:32:64-S128"
target triple = "x86_64-pc-linux-gnu"

%struct.CostManager = type { ptr, i32, ptr, i64, [4095 x i64], ptr, ptr, [10 x %struct.CostInterval], ptr, ptr }
%struct.CostInterval = type { i64, i32, i32, i32, ptr, ptr }

; Function Attrs: nounwind uwtable
define internal void @CostIntervalAddToFreeList(ptr noundef %0, ptr noundef %1) #0 {
  %3 = alloca ptr, align 8
  %4 = alloca ptr, align 8
  store ptr %0, ptr %3, align 8, !tbaa !18
  store ptr %1, ptr %4, align 8, !tbaa !62
  %5 = load ptr, ptr %3, align 8, !tbaa !18
  %6 = getelementptr inbounds nuw %struct.CostManager, ptr %5, i32 0, i32 8
  %7 = load ptr, ptr %6, align 8, !tbaa !76
  %8 = load ptr, ptr %4, align 8, !tbaa !62
  %9 = getelementptr inbounds nuw %struct.CostInterval, ptr %8, i32 0, i32 5
  store ptr %7, ptr %9, align 8, !tbaa !66
  %10 = load ptr, ptr %4, align 8, !tbaa !62
  %11 = load ptr, ptr %3, align 8, !tbaa !18
  %12 = getelementptr inbounds nuw %struct.CostManager, ptr %11, i32 0, i32 8
  store ptr %10, ptr %12, align 8, !tbaa !76
  ret void
}

; Function Attrs: nounwind uwtable
define internal i32 @CostIntervalIsInFreeList(ptr noundef %0, ptr noundef %1) #0 {
  %3 = alloca ptr, align 8
  %4 = alloca ptr, align 8
  store ptr %0, ptr %3, align 8, !tbaa !18
  store ptr %1, ptr %4, align 8, !tbaa !62
  %5 = load ptr, ptr %4, align 8, !tbaa !62
  %6 = load ptr, ptr %3, align 8, !tbaa !18
  %7 = getelementptr inbounds nuw %struct.CostManager, ptr %6, i32 0, i32 7
  %8 = getelementptr inbounds [10 x %struct.CostInterval], ptr %7, i64 0, i64 0
  %9 = icmp uge ptr %5, %8
  br i1 %9, label %10, label %16

10:                                               ; preds = %2
  %11 = load ptr, ptr %4, align 8, !tbaa !62
  %12 = load ptr, ptr %3, align 8, !tbaa !18
  %13 = getelementptr inbounds nuw %struct.CostManager, ptr %12, i32 0, i32 7
  %14 = getelementptr inbounds [10 x %struct.CostInterval], ptr %13, i64 0, i64 9
  %15 = icmp ule ptr %11, %14
  br label %16

16:                                               ; preds = %10, %2
  %17 = phi i1 [ false, %2 ], [ %15, %10 ]
  %18 = zext i1 %17 to i32
  ret i32 %18
}

; Function Attrs: nounwind uwtable
define internal void @CostManagerInitFreeList(ptr noundef %0) #0 {
  %2 = alloca ptr, align 8
  %3 = alloca i32, align 4
  store ptr %0, ptr %2, align 8, !tbaa !18
  call void @llvm.lifetime.start.p0(i64 4, ptr %3) #7
  %4 = load ptr, ptr %2, align 8, !tbaa !18
  %5 = getelementptr inbounds nuw %struct.CostManager, ptr %4, i32 0, i32 8
  store ptr null, ptr %5, align 8, !tbaa !76
  store i32 0, ptr %3, align 4, !tbaa !3
  br label %6

6:                                                ; preds = %16, %1
  %7 = load i32, ptr %3, align 4, !tbaa !3
  %8 = icmp slt i32 %7, 10
  br i1 %8, label %9, label %19

9:                                                ; preds = %6
  %10 = load ptr, ptr %2, align 8, !tbaa !18
  %11 = load ptr, ptr %2, align 8, !tbaa !18
  %12 = getelementptr inbounds nuw %struct.CostManager, ptr %11, i32 0, i32 7
  %13 = load i32, ptr %3, align 4, !tbaa !3
  %14 = sext i32 %13 to i64
  %15 = getelementptr inbounds [10 x %struct.CostInterval], ptr %12, i64 0, i64 %14
  call void @CostIntervalAddToFreeList(ptr noundef %10, ptr noundef %15)
  br label %16

16:                                               ; preds = %9
  %17 = load i32, ptr %3, align 4, !tbaa !3
  %18 = add nsw i32 %17, 1
  store i32 %18, ptr %3, align 4, !tbaa !3
  br label %6, !llvm.loop !77

19:                                               ; preds = %6
  call void @llvm.lifetime.end.p0(i64 4, ptr %3) #7
  ret void
}

; Function Attrs: nounwind uwtable
define internal void @DeleteIntervalList(ptr noundef %0, ptr noundef %1) #0 {
  %3 = alloca ptr, align 8
  %4 = alloca ptr, align 8
  %5 = alloca ptr, align 8
  store ptr %0, ptr %3, align 8, !tbaa !18
  store ptr %1, ptr %4, align 8, !tbaa !62
  br label %6

6:                                                ; preds = %19, %2
  %7 = load ptr, ptr %4, align 8, !tbaa !62
  %8 = icmp ne ptr %7, null
  br i1 %8, label %9, label %21

9:                                                ; preds = %6
  call void @llvm.lifetime.start.p0(i64 8, ptr %5) #7
  %10 = load ptr, ptr %4, align 8, !tbaa !62
  %11 = getelementptr inbounds nuw %struct.CostInterval, ptr %10, i32 0, i32 5
  %12 = load ptr, ptr %11, align 8, !tbaa !66
  store ptr %12, ptr %5, align 8, !tbaa !62
  %13 = load ptr, ptr %3, align 8, !tbaa !18
  %14 = load ptr, ptr %4, align 8, !tbaa !62
  %15 = call i32 @CostIntervalIsInFreeList(ptr noundef %13, ptr noundef %14)
  %16 = icmp ne i32 %15, 0
  br i1 %16, label %19, label %17

17:                                               ; preds = %9
  %18 = load ptr, ptr %4, align 8, !tbaa !62
  call void @WebPSafeFree(ptr noundef %18)
  br label %19

19:                                               ; preds = %17, %9
  %20 = load ptr, ptr %5, align 8, !tbaa !62
  store ptr %20, ptr %4, align 8, !tbaa !62
  call void @llvm.lifetime.end.p0(i64 8, ptr %5) #7
  br label %6, !llvm.loop !91

21:                                               ; preds = %6
  ret void
}

; Function Attrs: nounwind uwtable
define internal void @CostManagerClear(ptr noundef %0) #0 {
  %2 = alloca ptr, align 8
  store ptr %0, ptr %2, align 8, !tbaa !18
  %3 = load ptr, ptr %2, align 8, !tbaa !18
  %4 = icmp eq ptr %3, null
  br i1 %4, label %5, label %6

5:                                                ; preds = %1
  br label %27

6:                                                ; preds = %1
  %7 = load ptr, ptr %2, align 8, !tbaa !18
  %8 = getelementptr inbounds nuw %struct.CostManager, ptr %7, i32 0, i32 5
  %9 = load ptr, ptr %8, align 8, !tbaa !23
  call void @WebPSafeFree(ptr noundef %9)
  %10 = load ptr, ptr %2, align 8, !tbaa !18
  %11 = getelementptr inbounds nuw %struct.CostManager, ptr %10, i32 0, i32 2
  %12 = load ptr, ptr %11, align 8, !tbaa !47
  call void @WebPSafeFree(ptr noundef %12)
  %13 = load ptr, ptr %2, align 8, !tbaa !18
  %14 = load ptr, ptr %2, align 8, !tbaa !18
  %15 = getelementptr inbounds nuw %struct.CostManager, ptr %14, i32 0, i32 0
  %16 = load ptr, ptr %15, align 8, !tbaa !48
  call void @DeleteIntervalList(ptr noundef %13, ptr noundef %16)
  %17 = load ptr, ptr %2, align 8, !tbaa !18
  %18 = getelementptr inbounds nuw %struct.CostManager, ptr %17, i32 0, i32 0
  store ptr null, ptr %18, align 8, !tbaa !48
  %19 = load ptr, ptr %2, align 8, !tbaa !18
  %20 = load ptr, ptr %2, align 8, !tbaa !18
  %21 = getelementptr inbounds nuw %struct.CostManager, ptr %20, i32 0, i32 9
  %22 = load ptr, ptr %21, align 8, !tbaa !49
  call void @DeleteIntervalList(ptr noundef %19, ptr noundef %22)
  %23 = load ptr, ptr %2, align 8, !tbaa !18
  %24 = getelementptr inbounds nuw %struct.CostManager, ptr %23, i32 0, i32 9
  store ptr null, ptr %24, align 8, !tbaa !49
  %25 = load ptr, ptr %2, align 8, !tbaa !18
  call void @llvm.memset.p0.i64(ptr align 8 %25, i8 0, i64 33224, i1 false)
  %26 = load ptr, ptr %2, align 8, !tbaa !18
  call void @CostManagerInitFreeList(ptr noundef %26)
  br label %27

27:                                               ; preds = %6, %5
  ret void
}