; Function Attrs: nounwind uwtable
define internal fastcc void @CostManagerClear(ptr noundef %0) unnamed_addr #0 {
  %2 = icmp eq ptr %0, null
  br i1 %2, label %35, label %3

3:                                                ; preds = %1
  %4 = getelementptr inbounds nuw i8, ptr %0, i64 32792
  %5 = load ptr, ptr %4, align 8, !tbaa !24
  tail call void @WebPSafeFree(ptr noundef %5) #7
  %6 = getelementptr inbounds nuw i8, ptr %0, i64 16
  %7 = load ptr, ptr %6, align 8, !tbaa !29
  tail call void @WebPSafeFree(ptr noundef %7) #7
  %8 = load ptr, ptr %0, align 8, !tbaa !30
  %.not10.i = icmp eq ptr %8, null
  br i1 %.not10.i, label %DeleteIntervalList.exit, label %.lr.ph.i

.lr.ph.i:                                         ; preds = %3
  %9 = getelementptr inbounds nuw i8, ptr %0, i64 32808
  %10 = getelementptr inbounds nuw i8, ptr %0, i64 33168
  br label %11

11:                                               ; preds = %17, %.lr.ph.i
  %.011.i = phi ptr [ %8, %.lr.ph.i ], [ %13, %17 ]
  %12 = getelementptr inbounds nuw i8, ptr %.011.i, i64 32
  %13 = load ptr, ptr %12, align 8, !tbaa !34
  %14 = icmp ult ptr %.011.i, %9
  %15 = icmp ugt ptr %.011.i, %10
  %.not9.i = select i1 %14, i1 true, i1 %15
  br i1 %.not9.i, label %16, label %17

16:                                               ; preds = %11
  tail call void @WebPSafeFree(ptr noundef nonnull %.011.i) #7
  br label %17

17:                                               ; preds = %16, %11
  %.not.i = icmp eq ptr %13, null
  br i1 %.not.i, label %DeleteIntervalList.exit, label %11, !llvm.loop !74

DeleteIntervalList.exit:                          ; preds = %17, %3
  store ptr null, ptr %0, align 8, !tbaa !30
  %18 = getelementptr inbounds nuw i8, ptr %0, i64 33216
  %19 = load ptr, ptr %18, align 8, !tbaa !31
  %.not10.i11 = icmp eq ptr %19, null
  br i1 %.not10.i11, label %DeleteIntervalList.exit16, label %.lr.ph.i12

.lr.ph.i12:                                       ; preds = %DeleteIntervalList.exit
  %20 = getelementptr inbounds nuw i8, ptr %0, i64 32808
  %21 = getelementptr inbounds nuw i8, ptr %0, i64 33168
  br label %22

22:                                               ; preds = %28, %.lr.ph.i12
  %.011.i13 = phi ptr [ %19, %.lr.ph.i12 ], [ %24, %28 ]
  %23 = getelementptr inbounds nuw i8, ptr %.011.i13, i64 32
  %24 = load ptr, ptr %23, align 8, !tbaa !34
  %25 = icmp ult ptr %.011.i13, %20
  %26 = icmp ugt ptr %.011.i13, %21
  %.not9.i14 = select i1 %25, i1 true, i1 %26
  br i1 %.not9.i14, label %27, label %28

27:                                               ; preds = %22
  tail call void @WebPSafeFree(ptr noundef nonnull %.011.i13) #7
  br label %28

28:                                               ; preds = %27, %22
  %.not.i15 = icmp eq ptr %24, null
  br i1 %.not.i15, label %DeleteIntervalList.exit16, label %22, !llvm.loop !74

DeleteIntervalList.exit16:                        ; preds = %28, %DeleteIntervalList.exit
  %29 = getelementptr inbounds nuw i8, ptr %0, i64 32808
  tail call void @llvm.memset.p0.i64(ptr noundef nonnull align 8 dereferenceable(33224) %0, i8 0, i64 33224, i1 false)
  br label %30

30:                                               ; preds = %30, %DeleteIntervalList.exit16
  %indvars.iv.i = phi i64 [ 0, %DeleteIntervalList.exit16 ], [ %indvars.iv.next.i, %30 ]
  %31 = phi ptr [ null, %DeleteIntervalList.exit16 ], [ %32, %30 ]
  %32 = getelementptr inbounds nuw [10 x %struct.CostInterval], ptr %29, i64 0, i64 %indvars.iv.i
  %33 = getelementptr inbounds nuw i8, ptr %32, i64 32
  store ptr %31, ptr %33, align 8, !tbaa !34
  %indvars.iv.next.i = add nuw nsw i64 %indvars.iv.i, 1
  %exitcond.not.i = icmp eq i64 %indvars.iv.next.i, 10
  br i1 %exitcond.not.i, label %CostManagerInitFreeList.exit, label %30, !llvm.loop !36

CostManagerInitFreeList.exit:                     ; preds = %30
  %34 = getelementptr inbounds nuw i8, ptr %0, i64 33208
  store ptr %32, ptr %34, align 8, !tbaa !37
  br label %35

35:                                               ; preds = %1, %CostManagerInitFreeList.exit
  ret void
}